target datalayout = "e-m:e-p270:32:32-p271:32:32-p272:64:64-i64:64-i128:128-f80:128-n8:16:32:64-S128"
target triple = "x86_64-pc-linux-gnu"

%class.QColor = type <{ i32, %"union.QColor::CT", [2 x i8] }>
%"union.QColor::CT" = type { %struct.anon }
%struct.anon = type { i16, i16, i16, i16, i16 }
%class.Handle = type { %class.QGraphicsObject, %class.QColor, i32, ptr }
%class.QGraphicsObject = type { %class.QObject, %class.QGraphicsItem }
%class.QObject = type { ptr, %class.QScopedPointer }
%class.QScopedPointer = type { ptr }
%class.QGraphicsItem = type { ptr, %class.QScopedPointer.4 }
%class.QScopedPointer.4 = type { ptr }
%class.QRectF = type { double, double, double, double }

; Function Attrs: mustprogress nounwind uwtable
define linkonce_odr void @_ZN6QRectFC2Edddd(ptr noundef nonnull align 8 dereferenceable(32) %0, double noundef %1, double noundef %2, double noundef %3, double noundef %4) unnamed_addr #1 comdat align 2 {
  %6 = alloca ptr, align 8
  %7 = alloca double, align 8
  %8 = alloca double, align 8
  %9 = alloca double, align 8
  %10 = alloca double, align 8
  store ptr %0, ptr %6, align 8
  store double %1, ptr %7, align 8
  store double %2, ptr %8, align 8
  store double %3, ptr %9, align 8
  store double %4, ptr %10, align 8
  %11 = load ptr, ptr %6, align 8
  %12 = getelementptr inbounds %class.QRectF, ptr %11, i32 0, i32 0
  %13 = load double, ptr %7, align 8
  store double %13, ptr %12, align 8
  %14 = getelementptr inbounds %class.QRectF, ptr %11, i32 0, i32 1
  %15 = load double, ptr %8, align 8
  store double %15, ptr %14, align 8
  %16 = getelementptr inbounds %class.QRectF, ptr %11, i32 0, i32 2
  %17 = load double, ptr %9, align 8
  store double %17, ptr %16, align 8
  %18 = getelementptr inbounds %class.QRectF, ptr %11, i32 0, i32 3
  %19 = load double, ptr %10, align 8
  store double %19, ptr %18, align 8
  ret void
}

; Function Attrs: mustprogress nounwind uwtable
define void @_ZNK8TFHandle12boundingRectEv(ptr dead_on_unwind noalias writable sret(%class.QRectF) align 8 %0, ptr noundef nonnull align 8 dereferenceable(81) %1) unnamed_addr #1 align 2 {
  %3 = alloca ptr, align 8
  store ptr %1, ptr %3, align 8
  %4 = load ptr, ptr %3, align 8
  %5 = getelementptr inbounds %class.Handle, ptr %4, i32 0, i32 2
  %6 = load i32, ptr %5, align 8
  %7 = sub nsw i32 0, %6
  %8 = sitofp i32 %7 to double
  %9 = fdiv double %8, 2.000000e+00
  %10 = getelementptr inbounds %class.Handle, ptr %4, i32 0, i32 2
  %11 = load i32, ptr %10, align 8
  %12 = sub nsw i32 0, %11
  %13 = sitofp i32 %12 to double
  %14 = fdiv double %13, 2.000000e+00
  %15 = getelementptr inbounds %class.Handle, ptr %4, i32 0, i32 2
  %16 = load i32, ptr %15, align 8
  %17 = sitofp i32 %16 to double
  %18 = getelementptr inbounds %class.Handle, ptr %4, i32 0, i32 2
  %19 = load i32, ptr %18, align 8
  %20 = sitofp i32 %19 to double
  call void @_ZN6QRectFC2Edddd(ptr noundef nonnull align 8 dereferenceable(32) %0, double noundef %9, double noundef %14, double noundef %17, double noundef %20) #8
  ret void
}

; Function Attrs: uwtable
define void @_ZThn16_NK8TFHandle12boundingRectEv(ptr dead_on_unwind noalias writable sret(%class.QRectF) align 8 %0, ptr noundef %1) unnamed_addr #7 align 2 {
  %3 = alloca ptr, align 8
  store ptr %1, ptr %3, align 8
  %4 = load ptr, ptr %3, align 8
  %5 = getelementptr inbounds i8, ptr %4, i64 -16
  tail call void @_ZNK8TFHandle12boundingRectEv(ptr dead_on_unwind writable sret(%class.QRectF) align 8 %0, ptr noundef nonnull align 8 dereferenceable(81) %5)
  ret void
}